(lp0
I21
aI22
aI56
aI57
aI58
aI59
aI80
aI84
aI85
aI131
aI132
aI133
aI134
aI155
aI161
aI162
aI179
aI180
aI189
aI192
aI220
aI222
aI234
aI238
aI244
aI248
aI261
aI262
aI303
aI307
aI315
aI319
aI327
aI349
aI54
aI55
aI35
aI42
aI51
aI53
aI62
aI66
aI69
aI74
aI122
aI123
aI94
aI101
aI107
aI109
aI129
aI133
aI137
aI142
aI163
aI316
aI192
aI193
aI194
aI195
aI196
aI197
aI198
a.